target datalayout = "e-m:e-p270:32:32-p271:32:32-p272:64:64-i64:64-i128:128-f80:128-n8:16:32:64-S128"
target triple = "x86_64-pc-linux-gnu"

%struct.GC_Thread_Rep = type { %union.anon.0, ptr, i64, i8, [7 x i8], i64, i64, ptr, %struct.thread_local_freelists }
%union.anon.0 = type { ptr }
%struct.thread_local_freelists = type { [3 x [25 x ptr]], [25 x ptr] }
%struct.__sigset_t = type { [16 x i64] }
%union.sem_t = type { i64, [24 x i8] }
%struct.GC_StackContext_Rep = type { ptr, ptr, ptr, i64, ptr, i64, i8, [1 x i8], i16, ptr }

@GC_on_abort = global ptr @GC_default_on_abort, align 8
@GC_current_warn_proc = internal global ptr @GC_default_warn_proc, align 8
@GC_sig_suspend = internal global i32 -1, align 4
@GC_sig_thr_restart = internal global i32 -1, align 4
@GC_stop_count = internal global i64 0, align 8
@GC_retry_signals = internal global i32 0, align 4
@GC_threads = internal global [256 x ptr] zeroinitializer, align 16
@GC_suspend_ack_sem = internal global %union.sem_t zeroinitializer, align 8
@suspend_handler_mask = internal global %struct.__sigset_t zeroinitializer, align 8
@.str.329 = private unnamed_addr constant [30 x i8] c"Bad signal in suspend_handler\00", align 1
@.str.330 = private unnamed_addr constant [51 x i8] c"GC Warning: Duplicate suspend signal in thread %p\0A\00", align 1

; Function Attrs: nounwind uwtable
define internal ptr @GC_approx_sp() #0 {
  %1 = alloca i64, align 8
  %2 = call ptr @llvm.frameaddress.p0(i32 0)
  %3 = ptrtoint ptr %2 to i64
  store volatile i64 %3, ptr %1, align 8
  %4 = load volatile i64, ptr %1, align 8
  %5 = inttoptr i64 %4 to ptr
  ret ptr %5
}

; Function Attrs: nounwind uwtable
define internal void @GC_store_stack_ptr(ptr noundef %0) #0 {
  %2 = alloca ptr, align 8
  %3 = alloca i64, align 8
  store ptr %0, ptr %2, align 8
  %4 = load ptr, ptr %2, align 8
  %5 = getelementptr inbounds %struct.GC_StackContext_Rep, ptr %4, i32 0, i32 1
  %6 = call ptr @GC_approx_sp()
  %7 = ptrtoint ptr %6 to i64
  store i64 %7, ptr %3, align 8
  %8 = load i64, ptr %3, align 8
  store atomic volatile i64 %8, ptr %5 monotonic, align 8
  ret void
}

; Function Attrs: nounwind uwtable
define internal ptr @GC_lookup_thread(i64 noundef %0) #0 {
  %2 = alloca i64, align 8
  %3 = alloca ptr, align 8
  store i64 %0, ptr %2, align 8
  %4 = load i64, ptr %2, align 8
  %5 = lshr i64 %4, 8
  %6 = load i64, ptr %2, align 8
  %7 = xor i64 %5, %6
  %8 = lshr i64 %7, 16
  %9 = load i64, ptr %2, align 8
  %10 = lshr i64 %9, 8
  %11 = load i64, ptr %2, align 8
  %12 = xor i64 %10, %11
  %13 = xor i64 %8, %12
  %14 = urem i64 %13, 256
  %15 = trunc i64 %14 to i32
  %16 = sext i32 %15 to i64
  %17 = getelementptr inbounds [256 x ptr], ptr @GC_threads, i64 0, i64 %16
  %18 = load ptr, ptr %17, align 8
  store ptr %18, ptr %3, align 8
  br label %19

19:                                               ; preds = %33, %1
  %20 = load ptr, ptr %3, align 8
  %21 = icmp ne ptr %20, null
  br i1 %21, label %22, label %37

22:                                               ; preds = %19
  %23 = load ptr, ptr %3, align 8
  %24 = getelementptr inbounds %struct.GC_Thread_Rep, ptr %23, i32 0, i32 2
  %25 = load i64, ptr %24, align 8
  %26 = load i64, ptr %2, align 8
  %27 = icmp eq i64 %25, %26
  %28 = zext i1 %27 to i32
  %29 = sext i32 %28 to i64
  %30 = icmp ne i64 %29, 0
  br i1 %30, label %31, label %32

31:                                               ; preds = %22
  br label %37

32:                                               ; preds = %22
  br label %33

33:                                               ; preds = %32
  %34 = load ptr, ptr %3, align 8
  %35 = getelementptr inbounds %struct.GC_Thread_Rep, ptr %34, i32 0, i32 0
  %36 = load ptr, ptr %35, align 8
  store ptr %36, ptr %3, align 8
  br label %19, !llvm.loop !98

37:                                               ; preds = %31, %19
  %38 = load ptr, ptr %3, align 8
  ret ptr %38
}

; Function Attrs: nounwind uwtable
define internal void @GC_suspend_handler_inner(ptr noundef %0, ptr noundef %1) #0 {
  %3 = alloca ptr, align 8
  %4 = alloca ptr, align 8
  %5 = alloca ptr, align 8
  %6 = alloca ptr, align 8
  %7 = alloca i32, align 4
  %8 = alloca i64, align 8
  %9 = alloca i64, align 8
  %10 = alloca i64, align 8
  %11 = alloca i64, align 8
  %12 = alloca i64, align 8
  %13 = alloca i64, align 8
  %14 = alloca i64, align 8
  %15 = alloca i64, align 8
  store ptr %0, ptr %3, align 8
  store ptr %1, ptr %4, align 8
  %16 = load atomic volatile i64, ptr @GC_stop_count acquire, align 8
  store i64 %16, ptr %10, align 8
  %17 = load i64, ptr %10, align 8
  store i64 %17, ptr %9, align 8
  %18 = load i64, ptr %9, align 8
  %19 = and i64 %18, 1
  %20 = icmp ne i64 %19, 0
  br i1 %20, label %21, label %22

21:                                               ; preds = %2
  br label %103

22:                                               ; preds = %2
  br label %23

23:                                               ; preds = %22
  %24 = call i32 @pthread_setcancelstate(i32 noundef 1, ptr noundef %7)
  br label %25

25:                                               ; preds = %23
  %26 = call i64 @pthread_self() #23
  %27 = call ptr @GC_lookup_thread(i64 noundef %26)
  store ptr %27, ptr %5, align 8
  %28 = load ptr, ptr %5, align 8
  %29 = getelementptr inbounds %struct.GC_Thread_Rep, ptr %28, i32 0, i32 5
  %30 = load volatile i64, ptr %29, align 8
  %31 = and i64 %30, -2
  %32 = load i64, ptr %9, align 8
  %33 = icmp eq i64 %31, %32
  br i1 %33, label %34, label %45

34:                                               ; preds = %25
  %35 = load i32, ptr @GC_retry_signals, align 4
  %36 = icmp ne i32 %35, 0
  br i1 %36, label %40, label %37

37:                                               ; preds = %34
  %38 = load ptr, ptr @GC_current_warn_proc, align 8
  %39 = call i64 @pthread_self() #23
  call void %38(ptr noundef @.str.330, i64 noundef %39)
  br label %40

40:                                               ; preds = %37, %34
  br label %41

41:                                               ; preds = %40
  %42 = load i32, ptr %7, align 4
  %43 = call i32 @pthread_setcancelstate(i32 noundef %42, ptr noundef null)
  br label %44

44:                                               ; preds = %41
  br label %103

45:                                               ; preds = %25
  %46 = load ptr, ptr %5, align 8
  %47 = getelementptr inbounds %struct.GC_Thread_Rep, ptr %46, i32 0, i32 1
  %48 = load ptr, ptr %47, align 8
  store ptr %48, ptr %6, align 8
  %49 = load ptr, ptr %6, align 8
  call void @GC_store_stack_ptr(ptr noundef %49)
  %50 = load ptr, ptr %5, align 8
  %51 = getelementptr inbounds %struct.GC_Thread_Rep, ptr %50, i32 0, i32 6
  %52 = load atomic volatile i64, ptr %51 monotonic, align 8
  store i64 %52, ptr %11, align 8
  %53 = load i64, ptr %11, align 8
  store i64 %53, ptr %8, align 8
  %54 = call i32 @sem_post(ptr noundef @GC_suspend_ack_sem) #18
  %55 = load ptr, ptr %5, align 8
  %56 = getelementptr inbounds %struct.GC_Thread_Rep, ptr %55, i32 0, i32 5
  %57 = load i64, ptr %9, align 8
  store i64 %57, ptr %12, align 8
  %58 = load i64, ptr %12, align 8
  store atomic volatile i64 %58, ptr %56 release, align 8
  br label %59

59:                                               ; preds = %79, %45
  %60 = call i32 @sigsuspend(ptr noundef @suspend_handler_mask)
  br label %61

61:                                               ; preds = %59
  %62 = load atomic volatile i64, ptr @GC_stop_count acquire, align 8
  store i64 %62, ptr %13, align 8
  %63 = load i64, ptr %13, align 8
  %64 = load i64, ptr %9, align 8
  %65 = icmp eq i64 %63, %64
  br i1 %65, label %79, label %66

66:                                               ; preds = %61
  %67 = load i64, ptr %8, align 8
  %68 = and i64 %67, 1
  %69 = icmp ne i64 %68, 0
  br i1 %69, label %70, label %77

70:                                               ; preds = %66
  %71 = load ptr, ptr %5, align 8
  %72 = getelementptr inbounds %struct.GC_Thread_Rep, ptr %71, i32 0, i32 6
  %73 = load atomic volatile i64, ptr %72 monotonic, align 8
  store i64 %73, ptr %14, align 8
  %74 = load i64, ptr %14, align 8
  %75 = load i64, ptr %8, align 8
  %76 = icmp eq i64 %74, %75
  br label %77

77:                                               ; preds = %70, %66
  %78 = phi i1 [ false, %66 ], [ %76, %70 ]
  br label %79

79:                                               ; preds = %77, %61
  %80 = phi i1 [ true, %61 ], [ %78, %77 ]
  br i1 %80, label %59, label %81, !llvm.loop !256

81:                                               ; preds = %79
  %82 = load i32, ptr @GC_retry_signals, align 4
  %83 = icmp ne i32 %82, 0
  br i1 %83, label %88, label %84

84:                                               ; preds = %81
  %85 = load i32, ptr @GC_sig_suspend, align 4
  %86 = load i32, ptr @GC_sig_thr_restart, align 4
  %87 = icmp eq i32 %85, %86
  br i1 %87, label %88, label %99

88:                                               ; preds = %84, %81
  %89 = call i32 @sem_post(ptr noundef @GC_suspend_ack_sem) #18
  %90 = load i32, ptr @GC_retry_signals, align 4
  %91 = icmp ne i32 %90, 0
  br i1 %91, label %92, label %98

92:                                               ; preds = %88
  %93 = load ptr, ptr %5, align 8
  %94 = getelementptr inbounds %struct.GC_Thread_Rep, ptr %93, i32 0, i32 5
  %95 = load i64, ptr %9, align 8
  %96 = or i64 %95, 1
  store i64 %96, ptr %15, align 8
  %97 = load i64, ptr %15, align 8
  store atomic volatile i64 %97, ptr %94 release, align 8
  br label %98

98:                                               ; preds = %92, %88
  br label %99

99:                                               ; preds = %98, %84
  br label %100

100:                                              ; preds = %99
  %101 = load i32, ptr %7, align 4
  %102 = call i32 @pthread_setcancelstate(i32 noundef %101, ptr noundef null)
  br label %103

103:                                              ; preds = %100, %44, %21
  ret void
}

; Function Attrs: nounwind uwtable
define internal void @GC_suspend_sigaction(i32 noundef %0, ptr noundef %1, ptr noundef %2) #0 {
  %4 = alloca i32, align 4
  %5 = alloca ptr, align 8
  %6 = alloca ptr, align 8
  %7 = alloca i32, align 4
  store i32 %0, ptr %4, align 4
  store ptr %1, ptr %5, align 8
  store ptr %2, ptr %6, align 8
  %8 = call ptr @__errno_location() #23
  %9 = load i32, ptr %8, align 4
  store i32 %9, ptr %7, align 4
  %10 = load i32, ptr %4, align 4
  %11 = load i32, ptr @GC_sig_suspend, align 4
  %12 = icmp ne i32 %10, %11
  br i1 %12, label %13, label %15

13:                                               ; preds = %3
  %14 = load ptr, ptr @GC_on_abort, align 8
  call void %14(ptr noundef @.str.329)
  call void @abort() #20
  unreachable

15:                                               ; preds = %3
  %16 = load ptr, ptr %6, align 8
  call void @GC_suspend_handler_inner(ptr noundef null, ptr noundef %16)
  %17 = load i32, ptr %7, align 4
  %18 = call ptr @__errno_location() #23
  store i32 %17, ptr %18, align 4
  ret void
}