; Function Attrs: nounwind uwtable
define internal void @GC_suspend_sigaction(i32 noundef %0, ptr readnone captures(none) %1, ptr readnone captures(none) %2) #1 {
  %4 = alloca i64, align 8
  %5 = alloca i32, align 4
  %6 = load i32, ptr @GC_sig_suspend, align 4
  %.not = icmp eq i32 %0, %6
  br i1 %.not, label %9, label %7

7:                                                ; preds = %3
  %8 = load ptr, ptr @GC_on_abort, align 8
  tail call void %8(ptr noundef nonnull @.str.329) #41
  tail call void @abort() #47
  unreachable

9:                                                ; preds = %3
  %10 = tail call ptr @__errno_location() #48
  %11 = load i32, ptr %10, align 4
  call void @llvm.lifetime.start.p0(i64 4, ptr nonnull %5)
  %12 = load atomic volatile i64, ptr @GC_stop_count acquire, align 8
  %13 = and i64 %12, 1
  %.not.i = icmp eq i64 %13, 0
  br i1 %.not.i, label %14, label %GC_suspend_handler_inner.exit

14:                                               ; preds = %9
  %15 = call i32 @pthread_setcancelstate(i32 noundef 1, ptr noundef nonnull %5) #41
  %16 = tail call i64 @pthread_self() #48
  %17 = lshr i64 %16, 8
  %18 = xor i64 %17, %16
  %19 = lshr i64 %18, 16
  %20 = xor i64 %19, %18
  %21 = and i64 %20, 255
  %22 = getelementptr inbounds nuw [256 x ptr], ptr @GC_threads, i64 0, i64 %21
  br label %23

23:                                               ; preds = %24, %14
  %.0.in.i.i = phi ptr [ %22, %14 ], [ %.0.i.i, %24 ]
  %.0.i.i = load ptr, ptr %.0.in.i.i, align 8
  %.not.i.i = icmp eq ptr %.0.i.i, null
  br i1 %.not.i.i, label %GC_lookup_thread.exit.i, label %24

24:                                               ; preds = %23
  %25 = getelementptr inbounds nuw i8, ptr %.0.i.i, i64 16
  %26 = load i64, ptr %25, align 8
  %27 = icmp eq i64 %26, %16
  br i1 %27, label %GC_lookup_thread.exit.i, label %23, !llvm.loop !10

GC_lookup_thread.exit.i:                          ; preds = %24, %23
  %28 = getelementptr inbounds nuw i8, ptr %.0.i.i, i64 32
  %29 = load volatile i64, ptr %28, align 8
  %30 = and i64 %29, -2
  %31 = icmp eq i64 %30, %12
  br i1 %31, label %32, label %36

32:                                               ; preds = %GC_lookup_thread.exit.i
  %33 = load i32, ptr @GC_retry_signals, align 4
  %.not24.i = icmp eq i32 %33, 0
  br i1 %.not24.i, label %34, label %.sink.split.i

34:                                               ; preds = %32
  %35 = load ptr, ptr @GC_current_warn_proc, align 8
  call void %35(ptr noundef nonnull @.str.330, i64 noundef %16) #41
  br label %.sink.split.i

36:                                               ; preds = %GC_lookup_thread.exit.i
  %37 = getelementptr inbounds nuw i8, ptr %.0.i.i, i64 8
  %38 = load ptr, ptr %37, align 8
  %39 = getelementptr inbounds nuw i8, ptr %38, i64 8
  call void @llvm.lifetime.start.p0(i64 8, ptr nonnull %4)
  %40 = call ptr @llvm.frameaddress.p0(i32 0)
  %41 = ptrtoint ptr %40 to i64
  store volatile i64 %41, ptr %4, align 8
  %.0..0..0..0..0..0..0..0..0..0..i.i.i = load volatile i64, ptr %4, align 8
  call void @llvm.lifetime.end.p0(i64 8, ptr nonnull %4)
  store atomic volatile i64 %.0..0..0..0..0..0..0..0..0..0..i.i.i, ptr %39 monotonic, align 8
  %42 = getelementptr inbounds nuw i8, ptr %.0.i.i, i64 40
  %43 = load atomic volatile i64, ptr %42 monotonic, align 8
  %.fr1.i = freeze i64 %43
  %44 = call i32 @sem_post(ptr noundef nonnull @GC_suspend_ack_sem) #41
  store atomic volatile i64 %12, ptr %28 release, align 8
  %45 = and i64 %.fr1.i, 1
  %.not21.i = icmp eq i64 %45, 0
  br i1 %.not21.i, label %.critedge.us.i, label %.critedge.i

.critedge.us.i:                                   ; preds = %36, %.critedge.us.i
  %46 = call i32 @sigsuspend(ptr noundef nonnull @suspend_handler_mask) #41
  %47 = load atomic volatile i64, ptr @GC_stop_count acquire, align 8
  %48 = icmp eq i64 %47, %12
  br i1 %48, label %.critedge.us.i, label %.critedge2.i, !llvm.loop !262

.critedge.i:                                      ; preds = %36, %.critedge.i.backedge
  %49 = call i32 @sigsuspend(ptr noundef nonnull @suspend_handler_mask) #41
  %50 = load atomic volatile i64, ptr @GC_stop_count acquire, align 8
  %51 = icmp eq i64 %50, %12
  br i1 %51, label %.critedge.i.backedge, label %52

52:                                               ; preds = %.critedge.i
  %53 = load atomic volatile i64, ptr %42 monotonic, align 8
  %54 = icmp eq i64 %53, %.fr1.i
  br i1 %54, label %.critedge.i.backedge, label %.critedge2.i

.critedge.i.backedge:                             ; preds = %52, %.critedge.i
  br label %.critedge.i, !llvm.loop !262

.critedge2.i:                                     ; preds = %52, %.critedge.us.i
  %55 = load i32, ptr @GC_retry_signals, align 4
  %.not22.i = icmp eq i32 %55, 0
  br i1 %.not22.i, label %56, label %60

56:                                               ; preds = %.critedge2.i
  %57 = load i32, ptr @GC_sig_suspend, align 4
  %58 = load i32, ptr @GC_sig_thr_restart, align 4
  %59 = icmp eq i32 %57, %58
  br i1 %59, label %60, label %.sink.split.i

60:                                               ; preds = %56, %.critedge2.i
  %61 = call i32 @sem_post(ptr noundef nonnull @GC_suspend_ack_sem) #41
  %62 = load i32, ptr @GC_retry_signals, align 4
  %.not23.i = icmp eq i32 %62, 0
  br i1 %.not23.i, label %.sink.split.i, label %63

63:                                               ; preds = %60
  %64 = or disjoint i64 %12, 1
  store atomic volatile i64 %64, ptr %28 release, align 8
  br label %.sink.split.i

.sink.split.i:                                    ; preds = %63, %60, %56, %34, %32
  %65 = load i32, ptr %5, align 4
  %66 = call i32 @pthread_setcancelstate(i32 noundef %65, ptr noundef null) #41
  br label %GC_suspend_handler_inner.exit

GC_suspend_handler_inner.exit:                    ; preds = %9, %.sink.split.i
  call void @llvm.lifetime.end.p0(i64 4, ptr nonnull %5)
  store i32 %11, ptr %10, align 4
  ret void
}